target datalayout = "e-m:e-p270:32:32-p271:32:32-p272:64:64-i64:64-i128:128-f80:128-n8:16:32:64-S128"
target triple = "x86_64-pc-linux-gnu"

; Function Attrs: nounwind uwtable
define internal i32 @avifDoubleToUnsignedFractionImpl(double noundef %0, i32 noundef %1, ptr noundef %2, ptr noundef %3) #0 {
  %5 = alloca i32, align 4
  %6 = alloca double, align 8
  %7 = alloca i32, align 4
  %8 = alloca ptr, align 8
  %9 = alloca ptr, align 8
  %10 = alloca i64, align 8
  %11 = alloca i32, align 4
  %12 = alloca double, align 8
  %13 = alloca i32, align 4
  %14 = alloca i32, align 4
  %15 = alloca double, align 8
  %16 = alloca double, align 8
  store double %0, ptr %6, align 8
  store i32 %1, ptr %7, align 4
  store ptr %2, ptr %8, align 8
  store ptr %3, ptr %9, align 8
  %17 = load double, ptr %6, align 8
  %18 = call i1 @llvm.is.fpclass.f64(double %17, i32 3)
  br i1 %18, label %27, label %19

19:                                               ; preds = %4
  %20 = load double, ptr %6, align 8
  %21 = fcmp olt double %20, 0.000000e+00
  br i1 %21, label %27, label %22

22:                                               ; preds = %19
  %23 = load double, ptr %6, align 8
  %24 = load i32, ptr %7, align 4
  %25 = uitofp i32 %24 to double
  %26 = fcmp ogt double %23, %25
  br i1 %26, label %27, label %28

27:                                               ; preds = %22, %19, %4
  store i32 0, ptr %5, align 4
  br label %104

28:                                               ; preds = %22
  %29 = load double, ptr %6, align 8
  %30 = fcmp ole double %29, 1.000000e+00
  br i1 %30, label %31, label %32

31:                                               ; preds = %28
  br label %39

32:                                               ; preds = %28
  %33 = load i32, ptr %7, align 4
  %34 = uitofp i32 %33 to double
  %35 = load double, ptr %6, align 8
  %36 = fdiv double %34, %35
  %37 = call double @llvm.floor.f64(double %36)
  %38 = fptoui double %37 to i64
  br label %39

39:                                               ; preds = %32, %31
  %40 = phi i64 [ 4294967295, %31 ], [ %38, %32 ]
  store i64 %40, ptr %10, align 8
  %41 = load ptr, ptr %9, align 8
  store i32 1, ptr %41, align 4
  store i32 0, ptr %11, align 4
  %42 = load double, ptr %6, align 8
  %43 = load double, ptr %6, align 8
  %44 = call double @llvm.floor.f64(double %43)
  %45 = fsub double %42, %44
  store double %45, ptr %12, align 8
  store i32 0, ptr %13, align 4
  store i32 39, ptr %14, align 4
  br label %46

46:                                               ; preds = %83, %39
  %47 = load i32, ptr %13, align 4
  %48 = icmp slt i32 %47, 39
  br i1 %48, label %49, label %95

49:                                               ; preds = %46
  %50 = load ptr, ptr %9, align 8
  %51 = load i32, ptr %50, align 4
  %52 = uitofp i32 %51 to double
  %53 = load double, ptr %6, align 8
  %54 = fmul double %52, %53
  store double %54, ptr %15, align 8
  %55 = load double, ptr %15, align 8
  %56 = call double @llvm.round.f64(double %55)
  %57 = fptoui double %56 to i32
  %58 = load ptr, ptr %8, align 8
  store i32 %57, ptr %58, align 4
  %59 = load double, ptr %15, align 8
  %60 = load ptr, ptr %8, align 8
  %61 = load i32, ptr %60, align 4
  %62 = uitofp i32 %61 to double
  %63 = fsub double %59, %62
  %64 = call double @llvm.fabs.f64(double %63)
  %65 = fcmp oeq double %64, 0.000000e+00
  br i1 %65, label %66, label %67

66:                                               ; preds = %49
  store i32 1, ptr %5, align 4
  br label %104

67:                                               ; preds = %49
  %68 = load double, ptr %12, align 8
  %69 = fdiv double 1.000000e+00, %68
  store double %69, ptr %12, align 8
  %70 = load i32, ptr %11, align 4
  %71 = uitofp i32 %70 to double
  %72 = load double, ptr %12, align 8
  %73 = call double @llvm.floor.f64(double %72)
  %74 = load ptr, ptr %9, align 8
  %75 = load i32, ptr %74, align 4
  %76 = uitofp i32 %75 to double
  %77 = call double @llvm.fmuladd.f64(double %73, double %76, double %71)
  store double %77, ptr %16, align 8
  %78 = load double, ptr %16, align 8
  %79 = load i64, ptr %10, align 8
  %80 = uitofp i64 %79 to double
  %81 = fcmp ogt double %78, %80
  br i1 %81, label %82, label %83

82:                                               ; preds = %67
  store i32 1, ptr %5, align 4
  br label %104

83:                                               ; preds = %67
  %84 = load ptr, ptr %9, align 8
  %85 = load i32, ptr %84, align 4
  store i32 %85, ptr %11, align 4
  %86 = load double, ptr %16, align 8
  %87 = fptoui double %86 to i32
  %88 = load ptr, ptr %9, align 8
  store i32 %87, ptr %88, align 4
  %89 = load double, ptr %12, align 8
  %90 = call double @llvm.floor.f64(double %89)
  %91 = load double, ptr %12, align 8
  %92 = fsub double %91, %90
  store double %92, ptr %12, align 8
  %93 = load i32, ptr %13, align 4
  %94 = add nsw i32 %93, 1
  store i32 %94, ptr %13, align 4
  br label %46, !llvm.loop !6

95:                                               ; preds = %46
  %96 = load ptr, ptr %9, align 8
  %97 = load i32, ptr %96, align 4
  %98 = uitofp i32 %97 to double
  %99 = load double, ptr %6, align 8
  %100 = fmul double %98, %99
  %101 = call double @llvm.round.f64(double %100)
  %102 = fptoui double %101 to i32
  %103 = load ptr, ptr %8, align 8
  store i32 %102, ptr %103, align 4
  store i32 1, ptr %5, align 4
  br label %104

104:                                              ; preds = %95, %82, %66, %27
  %105 = load i32, ptr %5, align 4
  ret i32 %105
}

; Function Attrs: nounwind uwtable
define hidden i32 @avifDoubleToSignedFraction(double noundef %0, ptr noundef %1, ptr noundef %2) #0 {
  %4 = alloca i32, align 4
  %5 = alloca double, align 8
  %6 = alloca ptr, align 8
  %7 = alloca ptr, align 8
  %8 = alloca i32, align 4
  store double %0, ptr %5, align 8
  store ptr %1, ptr %6, align 8
  store ptr %2, ptr %7, align 8
  %9 = load double, ptr %5, align 8
  %10 = call double @llvm.fabs.f64(double %9)
  %11 = load ptr, ptr %7, align 8
  %12 = call i32 @avifDoubleToUnsignedFractionImpl(double noundef %10, i32 noundef 2147483647, ptr noundef %8, ptr noundef %11)
  %13 = icmp ne i32 %12, 0
  br i1 %13, label %15, label %14

14:                                               ; preds = %3
  store i32 0, ptr %4, align 4
  br label %25

15:                                               ; preds = %3
  %16 = load i32, ptr %8, align 4
  %17 = load ptr, ptr %6, align 8
  store i32 %16, ptr %17, align 4
  %18 = load double, ptr %5, align 8
  %19 = fcmp olt double %18, 0.000000e+00
  br i1 %19, label %20, label %24

20:                                               ; preds = %15
  %21 = load ptr, ptr %6, align 8
  %22 = load i32, ptr %21, align 4
  %23 = mul nsw i32 %22, -1
  store i32 %23, ptr %21, align 4
  br label %24

24:                                               ; preds = %20, %15
  store i32 1, ptr %4, align 4
  br label %25

25:                                               ; preds = %24, %14
  %26 = load i32, ptr %4, align 4
  ret i32 %26
}