; Function Attrs: nofree norecurse nosync nounwind memory(argmem: write) uwtable
define hidden range(i32 0, 2) i32 @avifDoubleToSignedFraction(double noundef %0, ptr nocapture noundef writeonly %1, ptr nocapture noundef writeonly %2) local_unnamed_addr #8 {
  %4 = tail call double @llvm.fabs.f64(double %0)
  %or.cond.i = fcmp uno double %0, 0.000000e+00
  %5 = fcmp ogt double %4, 0x41DFFFFFFFC00000
  %or.cond = or i1 %or.cond.i, %5
  br i1 %or.cond, label %avifDoubleToUnsignedFractionImpl.exit, label %6

6:                                                ; preds = %3
  %7 = fcmp ugt double %4, 1.000000e+00
  br i1 %7, label %8, label %13

8:                                                ; preds = %6
  %9 = fdiv double 0x41DFFFFFFFC00000, %4
  %10 = tail call double @llvm.floor.f64(double %9)
  %11 = fptoui double %10 to i64
  %12 = uitofp i64 %11 to double
  br label %13

13:                                               ; preds = %8, %6
  %14 = phi double [ %12, %8 ], [ 0x41EFFFFFFFE00000, %6 ]
  store i32 1, ptr %2, align 4
  %15 = tail call double @llvm.floor.f64(double %4)
  %16 = fsub double %4, %15
  br label %17

17:                                               ; preds = %31, %13
  %18 = phi i32 [ 1, %13 ], [ %32, %31 ]
  %.03341.i = phi i32 [ 0, %13 ], [ %18, %31 ]
  %.03440.i = phi double [ %16, %13 ], [ %33, %31 ]
  %.03539.i = phi i32 [ 0, %13 ], [ %34, %31 ]
  %19 = uitofp i32 %18 to double
  %20 = fmul double %4, %19
  %21 = tail call double @llvm.round.f64(double %20)
  %22 = fptoui double %21 to i32
  %23 = uitofp i32 %22 to double
  %24 = fcmp oeq double %20, %23
  br i1 %24, label %.loopexit, label %25

25:                                               ; preds = %17
  %26 = fdiv double 1.000000e+00, %.03440.i
  %27 = uitofp i32 %.03341.i to double
  %28 = tail call double @llvm.floor.f64(double %26)
  %29 = tail call double @llvm.fmuladd.f64(double %28, double %19, double %27)
  %30 = fcmp ogt double %29, %14
  br i1 %30, label %.loopexit, label %31

31:                                               ; preds = %25
  %32 = fptoui double %29 to i32
  store i32 %32, ptr %2, align 4
  %33 = fsub double %26, %28
  %34 = add nuw nsw i32 %.03539.i, 1
  %exitcond.not.i = icmp eq i32 %34, 39
  br i1 %exitcond.not.i, label %35, label %17, !llvm.loop !6

35:                                               ; preds = %31
  %36 = uitofp i32 %32 to double
  %37 = fmul double %4, %36
  %38 = tail call double @llvm.round.f64(double %37)
  %39 = fptoui double %38 to i32
  br label %.loopexit

.loopexit:                                        ; preds = %17, %25, %35
  %.05.ph = phi i32 [ %39, %35 ], [ %22, %25 ], [ %22, %17 ]
  %40 = fcmp olt double %0, 0.000000e+00
  %41 = sub nsw i32 0, %.05.ph
  %storemerge = select i1 %40, i32 %41, i32 %.05.ph
  store i32 %storemerge, ptr %1, align 4
  br label %avifDoubleToUnsignedFractionImpl.exit

avifDoubleToUnsignedFractionImpl.exit:            ; preds = %3, %.loopexit
  %.0 = phi i32 [ 1, %.loopexit ], [ 0, %3 ]
  ret i32 %.0
}